target datalayout = "e-m:e-p270:32:32-p271:32:32-p272:64:64-i64:64-i128:128-f80:128-n8:16:32:64-S128"
target triple = "x86_64-pc-linux-gnu"

@hf_edonkey_string_length = internal global i32 0, align 4
@hf_edonkey_directory = internal global i32 0, align 4

; Function Attrs: null_pointer_is_valid sspstrong uwtable
define internal i32 @dissect_edonkey_directory(ptr noundef %0, ptr noundef %1, i32 noundef %2, ptr noundef %3) #0 {
  %5 = alloca ptr, align 8
  %6 = alloca ptr, align 8
  %7 = alloca i32, align 4
  %8 = alloca ptr, align 8
  %9 = alloca i16, align 2
  store ptr %0, ptr %5, align 8
  store ptr %1, ptr %6, align 8
  store i32 %2, ptr %7, align 4
  store ptr %3, ptr %8, align 8
  call void @llvm.lifetime.start.p0(i64 2, ptr %9) #6
  %10 = load ptr, ptr %5, align 8
  %11 = load i32, ptr %7, align 4
  %12 = call zeroext i16 @tvb_get_letohs(ptr noundef %10, i32 noundef %11)
  store i16 %12, ptr %9, align 2
  %13 = load ptr, ptr %8, align 8
  %14 = load i32, ptr @hf_edonkey_string_length, align 4
  %15 = load ptr, ptr %5, align 8
  %16 = load i32, ptr %7, align 4
  %17 = load i16, ptr %9, align 2
  %18 = zext i16 %17 to i32
  %19 = call ptr @proto_tree_add_uint(ptr noundef %13, i32 noundef %14, ptr noundef %15, i32 noundef %16, i32 noundef 2, i32 noundef %18)
  %20 = load ptr, ptr %8, align 8
  %21 = load i32, ptr @hf_edonkey_directory, align 4
  %22 = load ptr, ptr %5, align 8
  %23 = load i32, ptr %7, align 4
  %24 = add i32 %23, 2
  %25 = load i16, ptr %9, align 2
  %26 = zext i16 %25 to i32
  %27 = call ptr @proto_tree_add_item(ptr noundef %20, i32 noundef %21, ptr noundef %22, i32 noundef %24, i32 noundef %26, i32 noundef 0)
  %28 = load i32, ptr %7, align 4
  %29 = add i32 %28, 2
  %30 = load i16, ptr %9, align 2
  %31 = zext i16 %30 to i32
  %32 = add i32 %29, %31
  call void @llvm.lifetime.end.p0(i64 2, ptr %9) #6
  ret i32 %32
}