; Function Attrs: null_pointer_is_valid sspstrong uwtable
define internal noundef i32 @dissect_edonkey_directory(ptr noundef %0, ptr readnone captures(none) %1, i32 noundef %2, ptr noundef %3) #0 {
  %5 = tail call zeroext i16 @tvb_get_letohs(ptr noundef %0, i32 noundef %2)
  %6 = load i32, ptr @hf_edonkey_string_length, align 4
  %7 = zext i16 %5 to i32
  %8 = tail call ptr @proto_tree_add_uint(ptr noundef %3, i32 noundef %6, ptr noundef %0, i32 noundef %2, i32 noundef 2, i32 noundef %7)
  %9 = load i32, ptr @hf_edonkey_directory, align 4
  %10 = add i32 %2, 2
  %11 = tail call ptr @proto_tree_add_item(ptr noundef %3, i32 noundef %9, ptr noundef %0, i32 noundef %10, i32 noundef %7, i32 noundef 0)
  %12 = add i32 %10, %7
  ret i32 %12
}